Certificate:
    Data:
        Version: 3 (0x2)
        Serial Number: 4097 (0x1001)
        Signature Algorithm: sha256WithRSAEncryption
        Issuer: CN=Geekist Test CA
        Validity
            Not Before: May  1 18:45:18 2025 GMT
            Not After : May  1 18:45:18 2026 GMT
        Subject: CN=*.localhost
        Subject Public Key Info:
            Public Key Algorithm: rsaEncryption
                Public-Key: (2048 bit)
                Modulus:
                    00:d6:56:d8:ae:69:f6:15:f6:66:b1:2b:c5:9b:44:
                    4b:a7:71:80:d9:7b:2f:bf:16:cb:98:73:27:96:3c:
                    5e:1f:d2:35:db:9a:01:78:18:3f:2b:a5:3d:43:7b:
                    5f:84:68:54:13:fc:82:55:11:58:e5:17:70:9d:68:
                    3c:69:b5:93:94:53:bb:0d:43:8a:e5:6e:d9:ab:2f:
                    38:4b:5f:a4:8c:1f:da:84:a7:9f:bc:5f:44:bd:7e:
                    8c:40:ac:6e:08:0a:b0:44:b7:6e:1e:46:b1:e7:fa:
                    a0:e0:43:e1:0e:d9:c0:7f:42:97:ba:aa:b2:c0:5d:
                    9c:8a:65:f0:cf:42:64:bb:0d:42:84:88:cb:44:29:
                    b1:2c:26:fc:13:c5:a6:b5:d6:2f:3d:58:2f:42:2d:
                    9d:45:4e:3d:06:f5:79:4f:f9:19:e6:de:38:f8:29:
                    ee:ca:9e:c6:df:3a:e2:05:87:33:ce:32:7b:50:0e:
                    1e:ab:5d:ab:94:ac:05:4e:77:d4:6d:00:b9:63:ee:
                    b7:9a:7c:60:25:b0:fe:7b:f9:43:a3:71:b8:3e:92:
                    5a:18:5f:18:bb:c6:73:c2:98:98:6c:b8:a2:fe:ab:
                    cd:00:58:71:89:4e:a9:83:31:69:4e:34:dc:16:42:
                    df:98:da:95:1d:d9:3a:ac:24:b1:64:2e:20:e9:a3:
                    37:09
                Exponent: 65537 (0x10001)
        X509v3 extensions:
            Authority Information Access: 
                OCSP - URI:http://127.0.0.1/ocsp
            X509v3 Subject Key Identifier: 
                B6:A2:DB:A9:68:F5:9E:47:28:17:44:86:2F:14:61:2C:BE:B2:9B:13
            X509v3 Authority Key Identifier: 
                73:9B:FF:FB:CE:63:17:9E:19:2E:01:C4:CB:B4:C4:5D:2D:81:D6:CF
    Signature Algorithm: sha256WithRSAEncryption
    Signature Value:
        bb:93:d4:aa:81:d7:d0:ec:99:f6:56:ed:d1:c6:e1:55:1d:6f:
        7c:69:cd:20:75:47:a6:7f:4a:16:c1:4b:b7:3e:8c:e2:3f:81:
        c8:e3:3f:8a:3a:79:42:fd:9d:82:26:2c:6f:a6:e3:74:8a:a6:
        e5:c2:58:4d:ec:bc:33:3b:2d:b3:05:57:f5:1b:63:b4:0d:8e:
        cf:5d:1f:b1:2e:07:a2:45:a8:0a:4e:76:3b:2d:12:32:8b:28:
        45:a2:f7:b6:a3:c8:e5:e7:d3:4c:b5:b4:c7:ea:e9:64:a0:b5:
        17:a6:d1:9a:97:0f:b9:b5:5f:10:6d:94:00:a1:dd:b1:c1:85:
        a5:da:49:cf:4f:10:3b:55:ee:c1:d8:9c:06:ba:31:cf:d9:ab:
        ad:03:27:07:70:d4:30:d3:47:9f:99:ad:5f:98:d5:7a:47:9b:
        a5:da:95:cc:87:ca:d3:66:db:ae:88:16:0c:55:37:05:0e:8f:
        7d:d8:07:73:80:82:3c:2b:d2:ec:23:2d:11:8d:33:76:d0:7b:
        2d:f8:05:c0:75:a1:9d:b6:13:70:e9:90:c3:59:a5:c2:3b:62:
        72:75:d8:2a:eb:48:3f:7b:1e:34:19:18:3b:b6:b1:5b:25:f9:
        a4:ec:00:76:a0:2f:02:5d:35:72:64:3f:b8:04:44:5c:02:49:
        25:80:a9:b2
-----BEGIN CERTIFICATE-----
MIIDITCCAgmgAwIBAgICEAEwDQYJKoZIhvcNAQELBQAwGjEYMBYGA1UEAwwPR2Vl
a2lzdCBUZXN0IENBMB4XDTI1MDUwMTE4NDUxOFoXDTI2MDUwMTE4NDUxOFowFjEU
MBIGA1UEAwwLKi5sb2NhbGhvc3QwggEiMA0GCSqGSIb3DQEBAQUAA4IBDwAwggEK
AoIBAQDWVtiuafYV9maxK8WbREuncYDZey+/FsuYcyeWPF4f0jXbmgF4GD8rpT1D
e1+EaFQT/IJVEVjlF3CdaDxptZOUU7sNQ4rlbtmrLzhLX6SMH9qEp5+8X0S9foxA
rG4ICrBEt24eRrHn+qDgQ+EO2cB/Qpe6qrLAXZyKZfDPQmS7DUKEiMtEKbEsJvwT
xaa11i89WC9CLZ1FTj0G9XlP+Rnm3jj4Ke7KnsbfOuIFhzPOMntQDh6rXauUrAVO
d9RtALlj7reafGAlsP57+UOjcbg+kloYXxi7xnPCmJhsuKL+q80AWHGJTqmDMWlO
NNwWQt+Y2pUd2TqsJLFkLiDpozcJAgMBAAGjdTBzMDEGCCsGAQUFBwEBBCUwIzAh
BggrBgEFBQcwAYYVaHR0cDovLzEyNy4wLjAuMS9vY3NwMB0GA1UdDgQWBBS2otup
aPWeRygXRIYvFGEsvrKbEzAfBgNVHSMEGDAWgBRzm//7zmMXnhkuAcTLtMRdLYHW
zzANBgkqhkiG9w0BAQsFAAOCAQEAu5PUqoHX0OyZ9lbt0cbhVR1vfGnNIHVHpn9K
FsFLtz6M4j+ByOM/ijp5Qv2dgiYsb6bjdIqm5cJYTey8MzstswVX9RtjtA2Oz10f
sS4HokWoCk52Oy0SMosoRaL3tqPI5efTTLW0x+rpZKC1F6bRmpcPubVfEG2UAKHd
scGFpdpJz08QO1XuwdicBroxz9mrrQMnB3DUMNNHn5mtX5jVekebpdqVzIfK02bb
rogWDFU3BQ6PfdgHc4CCPCvS7CMtEY0zdtB7LfgFwHWhnbYTcOmQw1mlwjticnXY
KutIP3seNBkYO7axWyX5pOwAdqAvAl01cmQ/uAREXAJJJYCpsg==
-----END CERTIFICATE-----
